target datalayout = "e-m:e-p270:32:32-p271:32:32-p272:64:64-i64:64-i128:128-f80:128-n8:16:32:64-S128"
target triple = "x86_64-pc-linux-gnu"

%struct.LimExNFA32 = type { [256 x i8], i32, i32, i32, i32, i32, i32, i32, i32, i32, i32, i32, i32, i32, i32, i32, i32, i32, i32, i32, i32, i32, i32, i32, i32, i32, i32, i32, i32, i32, i32, i32, [8 x i32], i32, [8 x i8], %struct.m512, %struct.m512, %struct.m512 }
%struct.m512 = type { <4 x i64>, <4 x i64> }
%struct.NFARepeatInfo = type { i32, i32, i32, i32, i32, i32 }
%union.RepeatControl = type { %struct.RepeatRingControl }
%struct.RepeatRingControl = type { i64, i16, i16 }
%struct.unaligned.1 = type { i32 }
%struct.unaligned.2 = type { i16 }

; Function Attrs: alwaysinline nounwind uwtable
define internal ptr @get_reach_table(ptr noundef %0) #2 {
  %2 = alloca ptr, align 8
  %3 = alloca ptr, align 8
  store ptr %0, ptr %2, align 8
  call void @llvm.lifetime.start.p0(i64 8, ptr %3) #9
  %4 = load ptr, ptr %2, align 8
  %5 = getelementptr inbounds nuw i8, ptr %4, i64 640
  store ptr %5, ptr %3, align 8
  %6 = load ptr, ptr %3, align 8
  call void @llvm.lifetime.end.p0(i64 8, ptr %3) #9
  ret ptr %6
}

; Function Attrs: alwaysinline nounwind uwtable
define internal zeroext i16 @unaligned_load_u16(ptr noundef %0) #2 {
  %2 = alloca ptr, align 8
  %3 = alloca ptr, align 8
  store ptr %0, ptr %2, align 8
  call void @llvm.lifetime.start.p0(i64 8, ptr %3) #9
  %4 = load ptr, ptr %2, align 8
  store ptr %4, ptr %3, align 8
  %5 = load ptr, ptr %3, align 8
  %6 = getelementptr inbounds nuw %struct.unaligned.2, ptr %5, i32 0, i32 0
  %7 = load i16, ptr %6, align 1
  call void @llvm.lifetime.end.p0(i64 8, ptr %3) #9
  ret i16 %7
}

; Function Attrs: alwaysinline nounwind uwtable
define internal i32 @unaligned_load_u32(ptr noundef %0) #2 {
  %2 = alloca ptr, align 8
  %3 = alloca ptr, align 8
  store ptr %0, ptr %2, align 8
  call void @llvm.lifetime.start.p0(i64 8, ptr %3) #9
  %4 = load ptr, ptr %2, align 8
  store ptr %4, ptr %3, align 8
  %5 = load ptr, ptr %3, align 8
  %6 = getelementptr inbounds nuw %struct.unaligned.1, ptr %5, i32 0, i32 0
  %7 = load i32, ptr %6, align 1
  call void @llvm.lifetime.end.p0(i64 8, ptr %3) #9
  ret i32 %7
}

; Function Attrs: alwaysinline nounwind uwtable
define internal ptr @getRepeatInfo(ptr noundef %0) #2 {
  %2 = alloca ptr, align 8
  %3 = alloca ptr, align 8
  store ptr %0, ptr %2, align 8
  call void @llvm.lifetime.start.p0(i64 8, ptr %3) #9
  %4 = load ptr, ptr %2, align 8
  %5 = getelementptr inbounds nuw i8, ptr %4, i64 24
  store ptr %5, ptr %3, align 8
  %6 = load ptr, ptr %3, align 8
  call void @llvm.lifetime.end.p0(i64 8, ptr %3) #9
  ret ptr %6
}

; Function Attrs: alwaysinline nounwind uwtable
define internal signext i8 @testbit_u32(i32 noundef %0, i32 noundef %1) #2 {
  %3 = alloca i32, align 4
  %4 = alloca i32, align 4
  store i32 %0, ptr %3, align 4
  store i32 %1, ptr %4, align 4
  %5 = load i32, ptr %3, align 4
  %6 = load i32, ptr %4, align 4
  %7 = shl i32 1, %6
  %8 = and i32 %5, %7
  %9 = icmp ne i32 %8, 0
  %10 = xor i1 %9, true
  %11 = xor i1 %10, true
  %12 = zext i1 %11 to i32
  %13 = trunc i32 %12 to i8
  ret i8 %13
}

; Function Attrs: alwaysinline nounwind uwtable
define internal ptr @getNfaRepeatInfo32(ptr noundef %0, i32 noundef %1) #2 {
  %3 = alloca ptr, align 8
  %4 = alloca i32, align 4
  %5 = alloca ptr, align 8
  %6 = alloca ptr, align 8
  %7 = alloca ptr, align 8
  store ptr %0, ptr %3, align 8
  store i32 %1, ptr %4, align 4
  call void @llvm.lifetime.start.p0(i64 8, ptr %5) #9
  %8 = load ptr, ptr %3, align 8
  store ptr %8, ptr %5, align 8
  call void @llvm.lifetime.start.p0(i64 8, ptr %6) #9
  %9 = load ptr, ptr %5, align 8
  %10 = load ptr, ptr %3, align 8
  %11 = getelementptr inbounds nuw %struct.LimExNFA32, ptr %10, i32 0, i32 13
  %12 = load i32, ptr %11, align 16
  %13 = zext i32 %12 to i64
  %14 = getelementptr inbounds nuw i8, ptr %9, i64 %13
  store ptr %14, ptr %6, align 8
  call void @llvm.lifetime.start.p0(i64 8, ptr %7) #9
  %15 = load ptr, ptr %5, align 8
  %16 = load ptr, ptr %6, align 8
  %17 = load i32, ptr %4, align 4
  %18 = zext i32 %17 to i64
  %19 = getelementptr inbounds nuw i32, ptr %16, i64 %18
  %20 = load i32, ptr %19, align 4
  %21 = zext i32 %20 to i64
  %22 = getelementptr inbounds nuw i8, ptr %15, i64 %21
  store ptr %22, ptr %7, align 8
  %23 = load ptr, ptr %7, align 8
  call void @llvm.lifetime.end.p0(i64 8, ptr %7) #9
  call void @llvm.lifetime.end.p0(i64 8, ptr %6) #9
  call void @llvm.lifetime.end.p0(i64 8, ptr %5) #9
  ret ptr %23
}

; Function Attrs: alwaysinline nounwind uwtable
define internal ptr @getRepeatControlBase(ptr noundef %0, i64 noundef %1) #2 {
  %3 = alloca ptr, align 8
  %4 = alloca i64, align 8
  %5 = alloca ptr, align 8
  store ptr %0, ptr %3, align 8
  store i64 %1, ptr %4, align 8
  call void @llvm.lifetime.start.p0(i64 8, ptr %5) #9
  %6 = load ptr, ptr %3, align 8
  %7 = load i64, ptr %4, align 8
  %8 = add i64 %7, 7
  %9 = and i64 %8, -8
  %10 = getelementptr inbounds nuw i8, ptr %6, i64 %9
  store ptr %10, ptr %5, align 8
  %11 = load ptr, ptr %5, align 8
  call void @llvm.lifetime.end.p0(i64 8, ptr %5) #9
  ret ptr %11
}

; Function Attrs: alwaysinline nounwind uwtable
define internal i32 @moNfaReachMask32(ptr noundef %0, i8 noundef zeroext %1) #2 {
  %3 = alloca ptr, align 8
  %4 = alloca i8, align 1
  %5 = alloca ptr, align 8
  store ptr %0, ptr %3, align 8
  store i8 %1, ptr %4, align 1
  call void @llvm.lifetime.start.p0(i64 8, ptr %5) #9
  %6 = load ptr, ptr %3, align 8
  %7 = call ptr @get_reach_table(ptr noundef %6)
  store ptr %7, ptr %5, align 8
  %8 = load ptr, ptr %5, align 8
  %9 = load ptr, ptr %3, align 8
  %10 = getelementptr inbounds nuw %struct.LimExNFA32, ptr %9, i32 0, i32 0
  %11 = load i8, ptr %4, align 1
  %12 = zext i8 %11 to i64
  %13 = getelementptr inbounds nuw [256 x i8], ptr %10, i64 0, i64 %12
  %14 = load i8, ptr %13, align 1
  %15 = zext i8 %14 to i64
  %16 = getelementptr inbounds nuw i32, ptr %8, i64 %15
  %17 = load i32, ptr %16, align 4
  call void @llvm.lifetime.end.p0(i64 8, ptr %5) #9
  ret i32 %17
}

; Function Attrs: alwaysinline nounwind uwtable
define internal i32 @partial_load_u32(ptr noundef %0, i32 noundef %1) #2 {
  %3 = alloca i32, align 4
  %4 = alloca ptr, align 8
  %5 = alloca i32, align 4
  %6 = alloca i32, align 4
  %7 = alloca i32, align 4
  store ptr %0, ptr %4, align 8
  store i32 %1, ptr %5, align 4
  call void @llvm.lifetime.start.p0(i64 4, ptr %6) #9
  %8 = load i32, ptr %5, align 4
  switch i32 %8, label %35 [
    i32 4, label %9
    i32 3, label %13
    i32 2, label %25
    i32 1, label %30
    i32 0, label %35
  ]

9:                                                ; preds = %2
  %10 = load ptr, ptr %4, align 8
  %11 = call i32 @unaligned_load_u32(ptr noundef %10)
  store i32 %11, ptr %6, align 4
  %12 = load i32, ptr %6, align 4
  store i32 %12, ptr %3, align 4
  store i32 1, ptr %7, align 4
  br label %36

13:                                               ; preds = %2
  %14 = load ptr, ptr %4, align 8
  %15 = call zeroext i16 @unaligned_load_u16(ptr noundef %14)
  %16 = zext i16 %15 to i32
  store i32 %16, ptr %6, align 4
  %17 = load ptr, ptr %4, align 8
  %18 = getelementptr inbounds i8, ptr %17, i64 2
  %19 = load i8, ptr %18, align 1
  %20 = zext i8 %19 to i32
  %21 = shl i32 %20, 16
  %22 = load i32, ptr %6, align 4
  %23 = or i32 %22, %21
  store i32 %23, ptr %6, align 4
  %24 = load i32, ptr %6, align 4
  store i32 %24, ptr %3, align 4
  store i32 1, ptr %7, align 4
  br label %36

25:                                               ; preds = %2
  %26 = load ptr, ptr %4, align 8
  %27 = call zeroext i16 @unaligned_load_u16(ptr noundef %26)
  %28 = zext i16 %27 to i32
  store i32 %28, ptr %6, align 4
  %29 = load i32, ptr %6, align 4
  store i32 %29, ptr %3, align 4
  store i32 1, ptr %7, align 4
  br label %36

30:                                               ; preds = %2
  %31 = load ptr, ptr %4, align 8
  %32 = load i8, ptr %31, align 1
  %33 = zext i8 %32 to i32
  store i32 %33, ptr %6, align 4
  %34 = load i32, ptr %6, align 4
  store i32 %34, ptr %3, align 4
  store i32 1, ptr %7, align 4
  br label %36

35:                                               ; preds = %2, %2
  store i32 0, ptr %3, align 4
  store i32 1, ptr %7, align 4
  br label %36

36:                                               ; preds = %35, %30, %25, %13, %9
  call void @llvm.lifetime.end.p0(i64 4, ptr %6) #9
  %37 = load i32, ptr %3, align 4
  ret i32 %37
}

; Function Attrs: alwaysinline nounwind uwtable
define internal void @nfaExecLimEx32_Expand_Repeats(ptr noundef %0, ptr noundef %1, ptr noundef %2, i64 noundef %3) #2 {
  %5 = alloca ptr, align 8
  %6 = alloca ptr, align 8
  %7 = alloca ptr, align 8
  %8 = alloca i64, align 8
  %9 = alloca i32, align 4
  %10 = alloca i32, align 4
  %11 = alloca ptr, align 8
  %12 = alloca ptr, align 8
  %13 = alloca i32, align 4
  %14 = alloca ptr, align 8
  %15 = alloca ptr, align 8
  %16 = alloca ptr, align 8
  store ptr %0, ptr %5, align 8
  store ptr %1, ptr %6, align 8
  store ptr %2, ptr %7, align 8
  store i64 %3, ptr %8, align 8
  %17 = load ptr, ptr %5, align 8
  %18 = getelementptr inbounds nuw %struct.LimExNFA32, ptr %17, i32 0, i32 12
  %19 = load i32, ptr %18, align 4
  %20 = icmp ne i32 %19, 0
  br i1 %20, label %22, label %21

21:                                               ; preds = %4
  br label %107

22:                                               ; preds = %4
  call void @llvm.lifetime.start.p0(i64 4, ptr %9) #9
  %23 = load ptr, ptr %6, align 8
  %24 = load i32, ptr %23, align 4
  %25 = load ptr, ptr %5, align 8
  %26 = getelementptr inbounds nuw %struct.LimExNFA32, ptr %25, i32 0, i32 30
  %27 = load i32, ptr %26, align 4
  %28 = and i32 %24, %27
  store i32 %28, ptr %9, align 4
  %29 = load i32, ptr %9, align 4
  %30 = icmp eq i32 %29, 0
  br i1 %30, label %31, label %35

31:                                               ; preds = %22
  br label %32

32:                                               ; preds = %31
  br label %33

33:                                               ; preds = %32
  br label %34

34:                                               ; preds = %33
  store i32 1, ptr %10, align 4
  br label %105

35:                                               ; preds = %22
  call void @llvm.lifetime.start.p0(i64 8, ptr %11) #9
  %36 = load ptr, ptr %6, align 8
  %37 = call ptr @getRepeatControlBase(ptr noundef %36, i64 noundef 4)
  store ptr %37, ptr %11, align 8
  call void @llvm.lifetime.start.p0(i64 8, ptr %12) #9
  %38 = load ptr, ptr %7, align 8
  %39 = load ptr, ptr %5, align 8
  %40 = getelementptr inbounds nuw %struct.LimExNFA32, ptr %39, i32 0, i32 18
  %41 = load i32, ptr %40, align 4
  %42 = zext i32 %41 to i64
  %43 = getelementptr inbounds nuw i8, ptr %38, i64 %42
  store ptr %43, ptr %12, align 8
  call void @llvm.lifetime.start.p0(i64 4, ptr %13) #9
  store i32 0, ptr %13, align 4
  br label %44

44:                                               ; preds = %101, %35
  %45 = load i32, ptr %13, align 4
  %46 = load ptr, ptr %5, align 8
  %47 = getelementptr inbounds nuw %struct.LimExNFA32, ptr %46, i32 0, i32 12
  %48 = load i32, ptr %47, align 4
  %49 = icmp ult i32 %45, %48
  br i1 %49, label %51, label %50

50:                                               ; preds = %44
  store i32 4, ptr %10, align 4
  call void @llvm.lifetime.end.p0(i64 4, ptr %13) #9
  br label %104

51:                                               ; preds = %44
  br label %52

52:                                               ; preds = %51
  br label %53

53:                                               ; preds = %52
  br label %54

54:                                               ; preds = %53
  call void @llvm.lifetime.start.p0(i64 8, ptr %14) #9
  %55 = load ptr, ptr %5, align 8
  %56 = load i32, ptr %13, align 4
  %57 = call ptr @getNfaRepeatInfo32(ptr noundef %55, i32 noundef %56)
  store ptr %57, ptr %14, align 8
  call void @llvm.lifetime.start.p0(i64 8, ptr %15) #9
  %58 = load ptr, ptr %14, align 8
  %59 = load ptr, ptr %14, align 8
  %60 = getelementptr inbounds nuw %struct.NFARepeatInfo, ptr %59, i32 0, i32 5
  %61 = load i32, ptr %60, align 4
  %62 = zext i32 %61 to i64
  %63 = getelementptr inbounds nuw i8, ptr %58, i64 %62
  store ptr %63, ptr %15, align 8
  %64 = load i32, ptr %9, align 4
  %65 = load ptr, ptr %14, align 8
  %66 = getelementptr inbounds nuw %struct.NFARepeatInfo, ptr %65, i32 0, i32 0
  %67 = load i32, ptr %66, align 4
  %68 = call signext i8 @testbit_u32(i32 noundef %64, i32 noundef %67)
  %69 = icmp ne i8 %68, 0
  br i1 %69, label %80, label %70

70:                                               ; preds = %54
  %71 = load i32, ptr %9, align 4
  %72 = load ptr, ptr %15, align 8
  %73 = load i32, ptr %72, align 4
  %74 = and i32 %71, %73
  %75 = icmp eq i32 %74, 0
  br i1 %75, label %76, label %80

76:                                               ; preds = %70
  br label %77

77:                                               ; preds = %76
  br label %78

78:                                               ; preds = %77
  br label %79

79:                                               ; preds = %78
  store i32 6, ptr %10, align 4
  br label %98

80:                                               ; preds = %70, %54
  br label %81

81:                                               ; preds = %80
  br label %82

82:                                               ; preds = %81
  br label %83

83:                                               ; preds = %82
  call void @llvm.lifetime.start.p0(i64 8, ptr %16) #9
  %84 = load ptr, ptr %14, align 8
  %85 = call ptr @getRepeatInfo(ptr noundef %84)
  store ptr %85, ptr %16, align 8
  %86 = load ptr, ptr %12, align 8
  %87 = load ptr, ptr %14, align 8
  %88 = getelementptr inbounds nuw %struct.NFARepeatInfo, ptr %87, i32 0, i32 2
  %89 = load i32, ptr %88, align 4
  %90 = zext i32 %89 to i64
  %91 = getelementptr inbounds nuw i8, ptr %86, i64 %90
  %92 = load ptr, ptr %16, align 8
  %93 = load i64, ptr %8, align 8
  %94 = load ptr, ptr %11, align 8
  %95 = load i32, ptr %13, align 4
  %96 = zext i32 %95 to i64
  %97 = getelementptr inbounds nuw %union.RepeatControl, ptr %94, i64 %96
  call void @repeatUnpack(ptr noundef %91, ptr noundef %92, i64 noundef %93, ptr noundef %97)
  call void @llvm.lifetime.end.p0(i64 8, ptr %16) #9
  store i32 0, ptr %10, align 4
  br label %98

98:                                               ; preds = %83, %79
  call void @llvm.lifetime.end.p0(i64 8, ptr %15) #9
  call void @llvm.lifetime.end.p0(i64 8, ptr %14) #9
  %99 = load i32, ptr %10, align 4
  switch i32 %99, label %108 [
    i32 0, label %100
    i32 6, label %101
  ]

100:                                              ; preds = %98
  br label %101

101:                                              ; preds = %100, %98
  %102 = load i32, ptr %13, align 4
  %103 = add i32 %102, 1
  store i32 %103, ptr %13, align 4
  br label %44

104:                                              ; preds = %50
  call void @llvm.lifetime.end.p0(i64 8, ptr %12) #9
  call void @llvm.lifetime.end.p0(i64 8, ptr %11) #9
  store i32 0, ptr %10, align 4
  br label %105

105:                                              ; preds = %104, %34
  call void @llvm.lifetime.end.p0(i64 4, ptr %9) #9
  %106 = load i32, ptr %10, align 4
  switch i32 %106, label %108 [
    i32 0, label %107
    i32 1, label %107
  ]

107:                                              ; preds = %21, %105, %105
  ret void

108:                                              ; preds = %105, %98
  unreachable
}

; Function Attrs: alwaysinline nounwind uwtable
define internal void @moNfaExpandState32(ptr noundef %0, ptr noundef %1, ptr noundef %2, i8 noundef zeroext %3) #2 {
  %5 = alloca ptr, align 8
  %6 = alloca ptr, align 8
  %7 = alloca ptr, align 8
  %8 = alloca i8, align 1
  %9 = alloca i32, align 4
  %10 = alloca i32, align 4
  store ptr %0, ptr %5, align 8
  store ptr %1, ptr %6, align 8
  store ptr %2, ptr %7, align 8
  store i8 %3, ptr %8, align 1
  br label %11

11:                                               ; preds = %4
  br label %12

12:                                               ; preds = %11
  %13 = load ptr, ptr %5, align 8
  %14 = getelementptr inbounds nuw %struct.LimExNFA32, ptr %13, i32 0, i32 19
  %15 = load i32, ptr %14, align 8
  %16 = and i32 %15, 1
  %17 = icmp ne i32 %16, 0
  br i1 %17, label %27, label %18

18:                                               ; preds = %12
  br label %19

19:                                               ; preds = %18
  br label %20

20:                                               ; preds = %19
  %21 = load ptr, ptr %7, align 8
  %22 = load ptr, ptr %5, align 8
  %23 = getelementptr inbounds nuw %struct.LimExNFA32, ptr %22, i32 0, i32 18
  %24 = load i32, ptr %23, align 4
  %25 = call i32 @partial_load_u32(ptr noundef %21, i32 noundef %24)
  %26 = load ptr, ptr %6, align 8
  store i32 %25, ptr %26, align 4
  br label %63

27:                                               ; preds = %12
  br label %28

28:                                               ; preds = %27
  br label %29

29:                                               ; preds = %28
  call void @llvm.lifetime.start.p0(i64 4, ptr %9) #9
  %30 = load ptr, ptr %5, align 8
  %31 = load i8, ptr %8, align 1
  %32 = call i32 @moNfaReachMask32(ptr noundef %30, i8 noundef zeroext %31)
  store i32 %32, ptr %9, align 4
  %33 = load ptr, ptr %5, align 8
  %34 = getelementptr inbounds nuw %struct.LimExNFA32, ptr %33, i32 0, i32 19
  %35 = load i32, ptr %34, align 8
  %36 = and i32 %35, 2
  %37 = icmp ne i32 %36, 0
  br i1 %37, label %38, label %56

38:                                               ; preds = %29
  call void @llvm.lifetime.start.p0(i64 4, ptr %10) #9
  %39 = load ptr, ptr %5, align 8
  %40 = getelementptr inbounds nuw %struct.LimExNFA32, ptr %39, i32 0, i32 28
  %41 = load i32, ptr %40, align 4
  %42 = load i32, ptr %9, align 4
  %43 = and i32 %41, %42
  store i32 %43, ptr %10, align 4
  %44 = load ptr, ptr %6, align 8
  %45 = load ptr, ptr %7, align 8
  %46 = load ptr, ptr %5, align 8
  %47 = getelementptr inbounds nuw %struct.LimExNFA32, ptr %46, i32 0, i32 18
  %48 = load i32, ptr %47, align 4
  call void @loadcompressed32(ptr noundef %44, ptr noundef %45, ptr noundef %10, i32 noundef %48)
  %49 = load ptr, ptr %5, align 8
  %50 = getelementptr inbounds nuw %struct.LimExNFA32, ptr %49, i32 0, i32 21
  %51 = load i32, ptr %50, align 16
  %52 = load ptr, ptr %6, align 8
  %53 = load i32, ptr %52, align 4
  %54 = or i32 %51, %53
  %55 = load ptr, ptr %6, align 8
  store i32 %54, ptr %55, align 4
  call void @llvm.lifetime.end.p0(i64 4, ptr %10) #9
  br label %62

56:                                               ; preds = %29
  %57 = load ptr, ptr %6, align 8
  %58 = load ptr, ptr %7, align 8
  %59 = load ptr, ptr %5, align 8
  %60 = getelementptr inbounds nuw %struct.LimExNFA32, ptr %59, i32 0, i32 18
  %61 = load i32, ptr %60, align 4
  call void @loadcompressed32(ptr noundef %57, ptr noundef %58, ptr noundef %9, i32 noundef %61)
  br label %62

62:                                               ; preds = %56, %38
  call void @llvm.lifetime.end.p0(i64 4, ptr %9) #9
  br label %63

63:                                               ; preds = %62, %20
  ret void
}

; Function Attrs: nounwind uwtable
define hidden signext i8 @nfaExecLimEx32_expandState(ptr noundef %0, ptr noundef %1, ptr noundef %2, i64 noundef %3, i8 noundef zeroext %4) #0 {
  %6 = alloca ptr, align 8
  %7 = alloca ptr, align 8
  %8 = alloca ptr, align 8
  %9 = alloca i64, align 8
  %10 = alloca i8, align 1
  %11 = alloca ptr, align 8
  store ptr %0, ptr %6, align 8
  store ptr %1, ptr %7, align 8
  store ptr %2, ptr %8, align 8
  store i64 %3, ptr %9, align 8
  store i8 %4, ptr %10, align 1
  call void @llvm.lifetime.start.p0(i64 8, ptr %11) #9
  %12 = load ptr, ptr %6, align 8
  %13 = getelementptr inbounds nuw i8, ptr %12, i64 64
  store ptr %13, ptr %11, align 8
  %14 = load ptr, ptr %11, align 8
  %15 = load ptr, ptr %7, align 8
  %16 = load ptr, ptr %8, align 8
  %17 = load i8, ptr %10, align 1
  call void @moNfaExpandState32(ptr noundef %14, ptr noundef %15, ptr noundef %16, i8 noundef zeroext %17)
  %18 = load ptr, ptr %11, align 8
  %19 = load ptr, ptr %7, align 8
  %20 = load ptr, ptr %8, align 8
  %21 = load i64, ptr %9, align 8
  call void @nfaExecLimEx32_Expand_Repeats(ptr noundef %18, ptr noundef %19, ptr noundef %20, i64 noundef %21)
  call void @llvm.lifetime.end.p0(i64 8, ptr %11) #9
  ret i8 0
}