; Function Attrs: nounwind uwtable
define hidden noundef signext i8 @nfaExecLimEx32_expandState(ptr noundef %0, ptr noundef %1, ptr noundef %2, i64 noundef %3, i8 noundef zeroext %4) local_unnamed_addr #0 {
  %6 = alloca i32, align 4
  %7 = alloca i32, align 4
  %8 = getelementptr inbounds nuw i8, ptr %0, i64 64
  %9 = getelementptr inbounds nuw i8, ptr %0, i64 392
  %10 = load i32, ptr %9, align 8
  %11 = and i32 %10, 1
  %.not.i = icmp eq i32 %11, 0
  br i1 %.not.i, label %12, label %31

12:                                               ; preds = %5
  %13 = getelementptr inbounds nuw i8, ptr %0, i64 388
  %14 = load i32, ptr %13, align 4
  switch i32 %14, label %partial_load_u32.exit [
    i32 4, label %15
    i32 3, label %17
    i32 2, label %25
    i32 1, label %28
  ]

15:                                               ; preds = %12
  %16 = load i32, ptr %2, align 1
  br label %partial_load_u32.exit

17:                                               ; preds = %12
  %18 = load i16, ptr %2, align 1
  %19 = zext i16 %18 to i32
  %20 = getelementptr inbounds nuw i8, ptr %2, i64 2
  %21 = load i8, ptr %20, align 1
  %22 = zext i8 %21 to i32
  %23 = shl nuw nsw i32 %22, 16
  %24 = or disjoint i32 %23, %19
  br label %partial_load_u32.exit

25:                                               ; preds = %12
  %26 = load i16, ptr %2, align 1
  %27 = zext i16 %26 to i32
  br label %partial_load_u32.exit

28:                                               ; preds = %12
  %29 = load i8, ptr %2, align 1
  %30 = zext i8 %29 to i32
  br label %partial_load_u32.exit

partial_load_u32.exit:                            ; preds = %12, %15, %17, %25, %28
  %.0.i9 = phi i32 [ %30, %28 ], [ %27, %25 ], [ %24, %17 ], [ %16, %15 ], [ 0, %12 ]
  store i32 %.0.i9, ptr %1, align 4
  br label %moNfaExpandState32.exit

31:                                               ; preds = %5
  call void @llvm.lifetime.start.p0(i64 4, ptr nonnull %6) #8
  %32 = getelementptr inbounds nuw i8, ptr %0, i64 704
  %33 = zext i8 %4 to i64
  %34 = getelementptr inbounds nuw [256 x i8], ptr %8, i64 0, i64 %33
  %35 = load i8, ptr %34, align 1
  %36 = zext i8 %35 to i64
  %37 = getelementptr inbounds nuw i32, ptr %32, i64 %36
  %38 = load i32, ptr %37, align 4
  store i32 %38, ptr %6, align 4
  %39 = and i32 %10, 2
  %.not16.i = icmp eq i32 %39, 0
  br i1 %.not16.i, label %50, label %40

40:                                               ; preds = %31
  call void @llvm.lifetime.start.p0(i64 4, ptr nonnull %7) #8
  %41 = getelementptr inbounds nuw i8, ptr %0, i64 428
  %42 = load i32, ptr %41, align 4
  %43 = and i32 %42, %38
  store i32 %43, ptr %7, align 4
  %44 = getelementptr inbounds nuw i8, ptr %0, i64 388
  %45 = load i32, ptr %44, align 4
  call void @loadcompressed32(ptr noundef %1, ptr noundef %2, ptr noundef nonnull %7, i32 noundef %45) #8
  %46 = getelementptr inbounds nuw i8, ptr %0, i64 400
  %47 = load i32, ptr %46, align 16
  %48 = load i32, ptr %1, align 4
  %49 = or i32 %48, %47
  store i32 %49, ptr %1, align 4
  call void @llvm.lifetime.end.p0(i64 4, ptr nonnull %7) #8
  br label %53

50:                                               ; preds = %31
  %51 = getelementptr inbounds nuw i8, ptr %0, i64 388
  %52 = load i32, ptr %51, align 4
  call void @loadcompressed32(ptr noundef %1, ptr noundef %2, ptr noundef nonnull %6, i32 noundef %52) #8
  br label %53

53:                                               ; preds = %50, %40
  call void @llvm.lifetime.end.p0(i64 4, ptr nonnull %6) #8
  br label %moNfaExpandState32.exit

moNfaExpandState32.exit:                          ; preds = %partial_load_u32.exit, %53
  %54 = getelementptr inbounds nuw i8, ptr %0, i64 364
  %55 = load i32, ptr %54, align 4
  %.not.i8 = icmp eq i32 %55, 0
  br i1 %.not.i8, label %nfaExecLimEx32_Expand_Repeats.exit, label %56

56:                                               ; preds = %moNfaExpandState32.exit
  %57 = load i32, ptr %1, align 4
  %58 = getelementptr inbounds nuw i8, ptr %0, i64 436
  %59 = load i32, ptr %58, align 4
  %60 = and i32 %59, %57
  %61 = icmp eq i32 %60, 0
  br i1 %61, label %nfaExecLimEx32_Expand_Repeats.exit, label %.lr.ph

.lr.ph:                                           ; preds = %56
  %62 = getelementptr inbounds nuw i8, ptr %1, i64 8
  %63 = getelementptr inbounds nuw i8, ptr %0, i64 388
  %64 = load i32, ptr %63, align 4
  %65 = zext i32 %64 to i64
  %66 = getelementptr inbounds nuw i8, ptr %2, i64 %65
  %67 = getelementptr inbounds nuw i8, ptr %0, i64 368
  br label %68

68:                                               ; preds = %.lr.ph, %95
  %69 = phi i32 [ %55, %.lr.ph ], [ %96, %95 ]
  %indvars.iv = phi i64 [ 0, %.lr.ph ], [ %indvars.iv.next, %95 ]
  %70 = load i32, ptr %67, align 16
  %71 = zext i32 %70 to i64
  %72 = getelementptr inbounds nuw i8, ptr %8, i64 %71
  %73 = getelementptr inbounds nuw i32, ptr %72, i64 %indvars.iv
  %74 = load i32, ptr %73, align 4
  %75 = zext i32 %74 to i64
  %76 = getelementptr inbounds nuw i8, ptr %8, i64 %75
  %77 = load i32, ptr %76, align 4
  %78 = shl nuw i32 1, %77
  %79 = and i32 %78, %60
  %.not25.i = icmp eq i32 %79, 0
  br i1 %.not25.i, label %80, label %88

80:                                               ; preds = %68
  %81 = getelementptr inbounds nuw i8, ptr %76, i64 20
  %82 = load i32, ptr %81, align 4
  %83 = zext i32 %82 to i64
  %84 = getelementptr inbounds nuw i8, ptr %76, i64 %83
  %85 = load i32, ptr %84, align 4
  %86 = and i32 %85, %60
  %87 = icmp eq i32 %86, 0
  br i1 %87, label %95, label %88

88:                                               ; preds = %80, %68
  %89 = getelementptr inbounds nuw i8, ptr %76, i64 24
  %90 = getelementptr inbounds nuw i8, ptr %76, i64 8
  %91 = load i32, ptr %90, align 4
  %92 = zext i32 %91 to i64
  %93 = getelementptr inbounds nuw i8, ptr %66, i64 %92
  %94 = getelementptr inbounds nuw %union.RepeatControl, ptr %62, i64 %indvars.iv
  call void @repeatUnpack(ptr noundef %93, ptr noundef nonnull %89, i64 noundef %3, ptr noundef nonnull %94) #8
  %.pre = load i32, ptr %54, align 4
  br label %95

95:                                               ; preds = %88, %80
  %96 = phi i32 [ %.pre, %88 ], [ %69, %80 ]
  %indvars.iv.next = add nuw nsw i64 %indvars.iv, 1
  %97 = zext i32 %96 to i64
  %98 = icmp samesign ult i64 %indvars.iv.next, %97
  br i1 %98, label %68, label %nfaExecLimEx32_Expand_Repeats.exit

nfaExecLimEx32_Expand_Repeats.exit:               ; preds = %95, %moNfaExpandState32.exit, %56
  ret i8 0
}